; Function Attrs: nounwind uwtable
define void @Abc_MergeSortCost2(ptr noundef %0, i32 noundef %1, ptr noundef %2) local_unnamed_addr #3 {
  %4 = icmp slt i32 %1, 2
  br i1 %4, label %10, label %5

5:                                                ; preds = %3
  %6 = zext nneg i32 %1 to i64
  %7 = shl nuw nsw i64 %6, 2
  %8 = tail call noalias ptr @malloc(i64 noundef %7) #19
  %9 = getelementptr inbounds nuw i32, ptr %0, i64 %6
  tail call void @Abc_SortCost2_rec(ptr noundef %0, ptr noundef nonnull %9, ptr noundef %8, ptr noundef %2)
  tail call void @free(ptr noundef %8) #20
  br label %10

10:                                               ; preds = %3, %5
  ret void
}